target datalayout = "e-m:e-p270:32:32-p271:32:32-p272:64:64-i64:64-i128:128-f80:128-n8:16:32:64-S128"
target triple = "x86_64-pc-linux-gnu"

%struct.lxb_html_tree = type { ptr, ptr, ptr, ptr, ptr, ptr, ptr, %struct.lxb_html_tree_pending_table_t, ptr, i8, i8, i8, i8, i8, i8, ptr, ptr, ptr, i32, i64 }
%struct.lxb_html_tree_pending_table_t = type { ptr, i8 }
%struct.lexbor_array_t = type { ptr, i64, i64 }

; Function Attrs: nounwind uwtable
define hidden zeroext i1 @lxb_html_tree_open_elements_find_by_node(ptr noundef %0, ptr noundef %1, ptr noundef %2) #0 {
  %4 = alloca i1, align 1
  %5 = alloca ptr, align 8
  %6 = alloca ptr, align 8
  %7 = alloca ptr, align 8
  %8 = alloca ptr, align 8
  %9 = alloca i64, align 8
  store ptr %0, ptr %5, align 8
  store ptr %1, ptr %6, align 8
  store ptr %2, ptr %7, align 8
  %10 = load ptr, ptr %5, align 8
  %11 = getelementptr inbounds %struct.lxb_html_tree, ptr %10, i32 0, i32 4
  %12 = load ptr, ptr %11, align 8
  %13 = getelementptr inbounds %struct.lexbor_array_t, ptr %12, i32 0, i32 0
  %14 = load ptr, ptr %13, align 8
  store ptr %14, ptr %8, align 8
  store i64 0, ptr %9, align 8
  br label %15

15:                                               ; preds = %38, %3
  %16 = load i64, ptr %9, align 8
  %17 = load ptr, ptr %5, align 8
  %18 = getelementptr inbounds %struct.lxb_html_tree, ptr %17, i32 0, i32 4
  %19 = load ptr, ptr %18, align 8
  %20 = getelementptr inbounds %struct.lexbor_array_t, ptr %19, i32 0, i32 2
  %21 = load i64, ptr %20, align 8
  %22 = icmp ult i64 %16, %21
  br i1 %22, label %23, label %41

23:                                               ; preds = %15
  %24 = load ptr, ptr %8, align 8
  %25 = load i64, ptr %9, align 8
  %26 = getelementptr inbounds ptr, ptr %24, i64 %25
  %27 = load ptr, ptr %26, align 8
  %28 = load ptr, ptr %6, align 8
  %29 = icmp eq ptr %27, %28
  br i1 %29, label %30, label %37

30:                                               ; preds = %23
  %31 = load ptr, ptr %7, align 8
  %32 = icmp ne ptr %31, null
  br i1 %32, label %33, label %36

33:                                               ; preds = %30
  %34 = load i64, ptr %9, align 8
  %35 = load ptr, ptr %7, align 8
  store i64 %34, ptr %35, align 8
  br label %36

36:                                               ; preds = %33, %30
  store i1 true, ptr %4, align 1
  br label %47

37:                                               ; preds = %23
  br label %38

38:                                               ; preds = %37
  %39 = load i64, ptr %9, align 8
  %40 = add i64 %39, 1
  store i64 %40, ptr %9, align 8
  br label %15

41:                                               ; preds = %15
  %42 = load ptr, ptr %7, align 8
  %43 = icmp ne ptr %42, null
  br i1 %43, label %44, label %46

44:                                               ; preds = %41
  %45 = load ptr, ptr %7, align 8
  store i64 0, ptr %45, align 8
  br label %46

46:                                               ; preds = %44, %41
  store i1 false, ptr %4, align 1
  br label %47

47:                                               ; preds = %46, %36
  %48 = load i1, ptr %4, align 1
  ret i1 %48
}