; Function Attrs: nofree norecurse nosync nounwind memory(read, argmem: readwrite, inaccessiblemem: none) uwtable
define hidden zeroext i1 @lxb_html_tree_open_elements_find_by_node(ptr nocapture noundef readonly %0, ptr noundef readnone %1, ptr noundef writeonly %2) local_unnamed_addr #3 {
  %4 = getelementptr inbounds i8, ptr %0, i64 32
  %5 = load ptr, ptr %4, align 8
  %6 = load ptr, ptr %5, align 8
  %7 = getelementptr inbounds i8, ptr %5, i64 16
  %8 = load i64, ptr %7, align 8
  %.not22 = icmp eq i64 %8, 0
  br i1 %.not22, label %._crit_edge, label %.lr.ph.preheader

.lr.ph.preheader:                                 ; preds = %3
  %9 = load ptr, ptr %6, align 8
  %10 = icmp eq ptr %9, %1
  br i1 %10, label %.lr.ph._crit_edge, label %.lr.ph32

.lr.ph:                                           ; preds = %.lr.ph32
  %11 = getelementptr inbounds ptr, ptr %6, i64 %15
  %12 = load ptr, ptr %11, align 8
  %13 = icmp eq ptr %12, %1
  br i1 %13, label %.lr.ph._crit_edge.loopexit, label %.lr.ph32

.lr.ph._crit_edge.loopexit:                       ; preds = %.lr.ph
  %14 = icmp ult i64 %15, %8
  br label %.lr.ph._crit_edge

.lr.ph._crit_edge:                                ; preds = %.lr.ph._crit_edge.loopexit, %.lr.ph.preheader
  %.lcssa28 = phi i1 [ true, %.lr.ph.preheader ], [ %14, %.lr.ph._crit_edge.loopexit ]
  %.017.lcssa = phi i64 [ 0, %.lr.ph.preheader ], [ %15, %.lr.ph._crit_edge.loopexit ]
  %.not14 = icmp eq ptr %2, null
  br i1 %.not14, label %16, label %.sink.split

.lr.ph32:                                         ; preds = %.lr.ph.preheader, %.lr.ph
  %.01731 = phi i64 [ %15, %.lr.ph ], [ 0, %.lr.ph.preheader ]
  %15 = add nuw i64 %.01731, 1
  %exitcond.not = icmp eq i64 %15, %8
  br i1 %exitcond.not, label %._crit_edge, label %.lr.ph

._crit_edge:                                      ; preds = %.lr.ph32, %3
  %.not = icmp eq ptr %2, null
  br i1 %.not, label %16, label %.sink.split

.sink.split:                                      ; preds = %._crit_edge, %.lr.ph._crit_edge
  %.sink = phi i64 [ %.017.lcssa, %.lr.ph._crit_edge ], [ 0, %._crit_edge ]
  %.ph = phi i1 [ %.lcssa28, %.lr.ph._crit_edge ], [ false, %._crit_edge ]
  store i64 %.sink, ptr %2, align 8
  br label %16

16:                                               ; preds = %.sink.split, %._crit_edge, %.lr.ph._crit_edge
  %17 = phi i1 [ false, %._crit_edge ], [ %.lcssa28, %.lr.ph._crit_edge ], [ %.ph, %.sink.split ]
  ret i1 %17
}